target datalayout = "e-m:e-p270:32:32-p271:32:32-p272:64:64-i64:64-i128:128-f80:128-n8:16:32:64-S128"
target triple = "x86_64-pc-linux-gnu"

%struct.stbhw__process = type { ptr, ptr, ptr, ptr, ptr, i32, i32, i32 }
%struct.stbhw_config = type { i32, i32, [6 x i32], i32, i32, [4 x [4 x i32]] }
%struct.stbhw_tile = type { i8, i8, i8, i8, i8, i8, [1 x i8] }
%struct.stbhw_tileset = type { i32, [6 x i32], i32, ptr, ptr, i32, i32, i32, i32 }

; Function Attrs: nounwind uwtable
define void @stbhw__parse_h_rect(ptr noundef %0, i32 noundef %1, i32 noundef %2, i32 noundef %3, i32 noundef %4, i32 noundef %5, i32 noundef %6, i32 noundef %7, i32 noundef %8) #0 {
  %10 = alloca ptr, align 8
  %11 = alloca i32, align 4
  %12 = alloca i32, align 4
  %13 = alloca i32, align 4
  %14 = alloca i32, align 4
  %15 = alloca i32, align 4
  %16 = alloca i32, align 4
  %17 = alloca i32, align 4
  %18 = alloca i32, align 4
  %19 = alloca i32, align 4
  %20 = alloca ptr, align 8
  %21 = alloca i32, align 4
  %22 = alloca i32, align 4
  store ptr %0, ptr %10, align 8, !tbaa !8
  store i32 %1, ptr %11, align 4, !tbaa !10
  store i32 %2, ptr %12, align 4, !tbaa !10
  store i32 %3, ptr %13, align 4, !tbaa !10
  store i32 %4, ptr %14, align 4, !tbaa !10
  store i32 %5, ptr %15, align 4, !tbaa !10
  store i32 %6, ptr %16, align 4, !tbaa !10
  store i32 %7, ptr %17, align 4, !tbaa !10
  store i32 %8, ptr %18, align 4, !tbaa !10
  call void @llvm.lifetime.start.p0(i64 4, ptr %19) #6
  %23 = load ptr, ptr %10, align 8, !tbaa !8
  %24 = getelementptr inbounds nuw %struct.stbhw__process, ptr %23, i32 0, i32 1
  %25 = load ptr, ptr %24, align 8, !tbaa !15
  %26 = getelementptr inbounds nuw %struct.stbhw_config, ptr %25, i32 0, i32 1
  %27 = load i32, ptr %26, align 4, !tbaa !16
  store i32 %27, ptr %19, align 4, !tbaa !10
  call void @llvm.lifetime.start.p0(i64 8, ptr %20) #6
  %28 = load i32, ptr %19, align 4, !tbaa !10
  %29 = mul nsw i32 %28, 2
  %30 = mul nsw i32 3, %29
  %31 = load i32, ptr %19, align 4, !tbaa !10
  %32 = mul nsw i32 %30, %31
  %33 = sext i32 %32 to i64
  %34 = add i64 6, %33
  %35 = call noalias ptr @malloc(i64 noundef %34) #7
  store ptr %35, ptr %20, align 8, !tbaa !34
  call void @llvm.lifetime.start.p0(i64 4, ptr %21) #6
  call void @llvm.lifetime.start.p0(i64 4, ptr %22) #6
  %36 = load i32, ptr %11, align 4, !tbaa !10
  %37 = add nsw i32 %36, 1
  store i32 %37, ptr %11, align 4, !tbaa !10
  %38 = load i32, ptr %12, align 4, !tbaa !10
  %39 = add nsw i32 %38, 1
  store i32 %39, ptr %12, align 4, !tbaa !10
  %40 = load i32, ptr %13, align 4, !tbaa !10
  %41 = trunc i32 %40 to i8
  %42 = load ptr, ptr %20, align 8, !tbaa !34
  %43 = getelementptr inbounds nuw %struct.stbhw_tile, ptr %42, i32 0, i32 0
  store i8 %41, ptr %43, align 1, !tbaa !65
  %44 = load i32, ptr %14, align 4, !tbaa !10
  %45 = trunc i32 %44 to i8
  %46 = load ptr, ptr %20, align 8, !tbaa !34
  %47 = getelementptr inbounds nuw %struct.stbhw_tile, ptr %46, i32 0, i32 1
  store i8 %45, ptr %47, align 1, !tbaa !67
  %48 = load i32, ptr %15, align 4, !tbaa !10
  %49 = trunc i32 %48 to i8
  %50 = load ptr, ptr %20, align 8, !tbaa !34
  %51 = getelementptr inbounds nuw %struct.stbhw_tile, ptr %50, i32 0, i32 2
  store i8 %49, ptr %51, align 1, !tbaa !68
  %52 = load i32, ptr %16, align 4, !tbaa !10
  %53 = trunc i32 %52 to i8
  %54 = load ptr, ptr %20, align 8, !tbaa !34
  %55 = getelementptr inbounds nuw %struct.stbhw_tile, ptr %54, i32 0, i32 3
  store i8 %53, ptr %55, align 1, !tbaa !69
  %56 = load i32, ptr %17, align 4, !tbaa !10
  %57 = trunc i32 %56 to i8
  %58 = load ptr, ptr %20, align 8, !tbaa !34
  %59 = getelementptr inbounds nuw %struct.stbhw_tile, ptr %58, i32 0, i32 4
  store i8 %57, ptr %59, align 1, !tbaa !70
  %60 = load i32, ptr %18, align 4, !tbaa !10
  %61 = trunc i32 %60 to i8
  %62 = load ptr, ptr %20, align 8, !tbaa !34
  %63 = getelementptr inbounds nuw %struct.stbhw_tile, ptr %62, i32 0, i32 5
  store i8 %61, ptr %63, align 1, !tbaa !71
  store i32 0, ptr %22, align 4, !tbaa !10
  br label %64

64:                                               ; preds = %111, %9
  %65 = load i32, ptr %22, align 4, !tbaa !10
  %66 = load i32, ptr %19, align 4, !tbaa !10
  %67 = icmp slt i32 %65, %66
  br i1 %67, label %68, label %114

68:                                               ; preds = %64
  store i32 0, ptr %21, align 4, !tbaa !10
  br label %69

69:                                               ; preds = %107, %68
  %70 = load i32, ptr %21, align 4, !tbaa !10
  %71 = load i32, ptr %19, align 4, !tbaa !10
  %72 = mul nsw i32 %71, 2
  %73 = icmp slt i32 %70, %72
  br i1 %73, label %74, label %110

74:                                               ; preds = %69
  %75 = load ptr, ptr %20, align 8, !tbaa !34
  %76 = getelementptr inbounds nuw %struct.stbhw_tile, ptr %75, i32 0, i32 6
  %77 = getelementptr inbounds [1 x i8], ptr %76, i64 0, i64 0
  %78 = load i32, ptr %22, align 4, !tbaa !10
  %79 = load i32, ptr %19, align 4, !tbaa !10
  %80 = mul nsw i32 3, %79
  %81 = mul nsw i32 %80, 2
  %82 = mul nsw i32 %78, %81
  %83 = sext i32 %82 to i64
  %84 = getelementptr inbounds i8, ptr %77, i64 %83
  %85 = load i32, ptr %21, align 4, !tbaa !10
  %86 = mul nsw i32 %85, 3
  %87 = sext i32 %86 to i64
  %88 = getelementptr inbounds i8, ptr %84, i64 %87
  %89 = load ptr, ptr %10, align 8, !tbaa !8
  %90 = getelementptr inbounds nuw %struct.stbhw__process, ptr %89, i32 0, i32 4
  %91 = load ptr, ptr %90, align 8, !tbaa !92
  %92 = load i32, ptr %12, align 4, !tbaa !10
  %93 = load i32, ptr %22, align 4, !tbaa !10
  %94 = add nsw i32 %92, %93
  %95 = load ptr, ptr %10, align 8, !tbaa !8
  %96 = getelementptr inbounds nuw %struct.stbhw__process, ptr %95, i32 0, i32 5
  %97 = load i32, ptr %96, align 8, !tbaa !93
  %98 = mul nsw i32 %94, %97
  %99 = sext i32 %98 to i64
  %100 = getelementptr inbounds i8, ptr %91, i64 %99
  %101 = load i32, ptr %11, align 4, !tbaa !10
  %102 = load i32, ptr %21, align 4, !tbaa !10
  %103 = add nsw i32 %101, %102
  %104 = mul nsw i32 %103, 3
  %105 = sext i32 %104 to i64
  %106 = getelementptr inbounds i8, ptr %100, i64 %105
  call void @llvm.memcpy.p0.p0.i64(ptr align 1 %88, ptr align 1 %106, i64 3, i1 false)
  br label %107

107:                                              ; preds = %74
  %108 = load i32, ptr %21, align 4, !tbaa !10
  %109 = add nsw i32 %108, 1
  store i32 %109, ptr %21, align 4, !tbaa !10
  br label %69, !llvm.loop !94

110:                                              ; preds = %69
  br label %111

111:                                              ; preds = %110
  %112 = load i32, ptr %22, align 4, !tbaa !10
  %113 = add nsw i32 %112, 1
  store i32 %113, ptr %22, align 4, !tbaa !10
  br label %64, !llvm.loop !95

114:                                              ; preds = %64
  %115 = load ptr, ptr %20, align 8, !tbaa !34
  %116 = load ptr, ptr %10, align 8, !tbaa !8
  %117 = getelementptr inbounds nuw %struct.stbhw__process, ptr %116, i32 0, i32 0
  %118 = load ptr, ptr %117, align 8, !tbaa !96
  %119 = getelementptr inbounds nuw %struct.stbhw_tileset, ptr %118, i32 0, i32 3
  %120 = load ptr, ptr %119, align 8, !tbaa !86
  %121 = load ptr, ptr %10, align 8, !tbaa !8
  %122 = getelementptr inbounds nuw %struct.stbhw__process, ptr %121, i32 0, i32 0
  %123 = load ptr, ptr %122, align 8, !tbaa !96
  %124 = getelementptr inbounds nuw %struct.stbhw_tileset, ptr %123, i32 0, i32 5
  %125 = load i32, ptr %124, align 8, !tbaa !87
  %126 = add nsw i32 %125, 1
  store i32 %126, ptr %124, align 8, !tbaa !87
  %127 = sext i32 %125 to i64
  %128 = getelementptr inbounds ptr, ptr %120, i64 %127
  store ptr %115, ptr %128, align 8, !tbaa !34
  call void @llvm.lifetime.end.p0(i64 4, ptr %22) #6
  call void @llvm.lifetime.end.p0(i64 4, ptr %21) #6
  call void @llvm.lifetime.end.p0(i64 8, ptr %20) #6
  call void @llvm.lifetime.end.p0(i64 4, ptr %19) #6
  ret void
}